target datalayout = "e-m:e-p270:32:32-p271:32:32-p272:64:64-i64:64-i128:128-f80:128-n8:16:32:64-S128"
target triple = "x86_64-pc-linux-gnu"

%struct.z_stream_s = type { ptr, i32, i64, ptr, i32, i64, ptr, ptr, ptr, ptr, ptr, i32, i64, i64 }
%struct.internal_state = type { ptr, i32, ptr, i64, ptr, i32, i32, ptr, i32, i8, i32, i32, i32, i32, ptr, i64, ptr, ptr, i32, i32, i32, i32, i32, i64, i32, i32, i32, i32, i32, i32, i32, i32, i32, i32, i32, i32, i32, [573 x %struct.ct_data_s], [61 x %struct.ct_data_s], [39 x %struct.ct_data_s], %struct.tree_desc_s, %struct.tree_desc_s, %struct.tree_desc_s, [16 x i16], [573 x i32], i32, i32, [573 x i8], ptr, i32, i32, ptr, i64, i64, i32, i32, i16, i32, i64 }
%struct.ct_data_s = type { %union.anon, %union.anon.0 }
%union.anon = type { i16 }
%union.anon.0 = type { i16 }
%struct.tree_desc_s = type { ptr, i32, ptr }

; Function Attrs: nounwind uwtable
define i32 @deflateCopy(ptr noundef %0, ptr noundef %1) #0 {
  %3 = alloca i32, align 4
  %4 = alloca ptr, align 8
  %5 = alloca ptr, align 8
  %6 = alloca ptr, align 8
  %7 = alloca ptr, align 8
  %8 = alloca ptr, align 8
  %9 = alloca i32, align 4
  store ptr %0, ptr %4, align 8, !tbaa !3
  store ptr %1, ptr %5, align 8, !tbaa !3
  call void @llvm.lifetime.start.p0(i64 8, ptr %6) #5
  call void @llvm.lifetime.start.p0(i64 8, ptr %7) #5
  call void @llvm.lifetime.start.p0(i64 8, ptr %8) #5
  %10 = load ptr, ptr %5, align 8, !tbaa !3
  %11 = icmp eq ptr %10, null
  br i1 %11, label %20, label %12

12:                                               ; preds = %2
  %13 = load ptr, ptr %4, align 8, !tbaa !3
  %14 = icmp eq ptr %13, null
  br i1 %14, label %20, label %15

15:                                               ; preds = %12
  %16 = load ptr, ptr %5, align 8, !tbaa !3
  %17 = getelementptr inbounds nuw %struct.z_stream_s, ptr %16, i32 0, i32 7
  %18 = load ptr, ptr %17, align 8, !tbaa !21
  %19 = icmp eq ptr %18, null
  br i1 %19, label %20, label %21

20:                                               ; preds = %15, %12, %2
  store i32 -2, ptr %3, align 4
  store i32 1, ptr %9, align 4
  br label %216

21:                                               ; preds = %15
  %22 = load ptr, ptr %5, align 8, !tbaa !3
  %23 = getelementptr inbounds nuw %struct.z_stream_s, ptr %22, i32 0, i32 7
  %24 = load ptr, ptr %23, align 8, !tbaa !21
  store ptr %24, ptr %7, align 8, !tbaa !20
  %25 = load ptr, ptr %4, align 8, !tbaa !3
  %26 = load ptr, ptr %5, align 8, !tbaa !3
  call void @llvm.memcpy.p0.p0.i64(ptr align 1 %25, ptr align 1 %26, i64 112, i1 false)
  %27 = load ptr, ptr %4, align 8, !tbaa !3
  %28 = getelementptr inbounds nuw %struct.z_stream_s, ptr %27, i32 0, i32 8
  %29 = load ptr, ptr %28, align 8, !tbaa !17
  %30 = load ptr, ptr %4, align 8, !tbaa !3
  %31 = getelementptr inbounds nuw %struct.z_stream_s, ptr %30, i32 0, i32 10
  %32 = load ptr, ptr %31, align 8, !tbaa !18
  %33 = call ptr %29(ptr noundef %32, i32 noundef 1, i32 noundef 5936)
  store ptr %33, ptr %6, align 8, !tbaa !20
  %34 = load ptr, ptr %6, align 8, !tbaa !20
  %35 = icmp eq ptr %34, null
  br i1 %35, label %36, label %37

36:                                               ; preds = %21
  store i32 -4, ptr %3, align 4
  store i32 1, ptr %9, align 4
  br label %216

37:                                               ; preds = %21
  %38 = load ptr, ptr %6, align 8, !tbaa !20
  %39 = load ptr, ptr %4, align 8, !tbaa !3
  %40 = getelementptr inbounds nuw %struct.z_stream_s, ptr %39, i32 0, i32 7
  store ptr %38, ptr %40, align 8, !tbaa !21
  %41 = load ptr, ptr %6, align 8, !tbaa !20
  %42 = load ptr, ptr %7, align 8, !tbaa !20
  call void @llvm.memcpy.p0.p0.i64(ptr align 1 %41, ptr align 1 %42, i64 5936, i1 false)
  %43 = load ptr, ptr %4, align 8, !tbaa !3
  %44 = load ptr, ptr %6, align 8, !tbaa !20
  %45 = getelementptr inbounds nuw %struct.internal_state, ptr %44, i32 0, i32 0
  store ptr %43, ptr %45, align 8, !tbaa !22
  %46 = load ptr, ptr %4, align 8, !tbaa !3
  %47 = getelementptr inbounds nuw %struct.z_stream_s, ptr %46, i32 0, i32 8
  %48 = load ptr, ptr %47, align 8, !tbaa !17
  %49 = load ptr, ptr %4, align 8, !tbaa !3
  %50 = getelementptr inbounds nuw %struct.z_stream_s, ptr %49, i32 0, i32 10
  %51 = load ptr, ptr %50, align 8, !tbaa !18
  %52 = load ptr, ptr %6, align 8, !tbaa !20
  %53 = getelementptr inbounds nuw %struct.internal_state, ptr %52, i32 0, i32 11
  %54 = load i32, ptr %53, align 4, !tbaa !33
  %55 = call ptr %48(ptr noundef %51, i32 noundef %54, i32 noundef 2)
  %56 = load ptr, ptr %6, align 8, !tbaa !20
  %57 = getelementptr inbounds nuw %struct.internal_state, ptr %56, i32 0, i32 14
  store ptr %55, ptr %57, align 8, !tbaa !39
  %58 = load ptr, ptr %4, align 8, !tbaa !3
  %59 = getelementptr inbounds nuw %struct.z_stream_s, ptr %58, i32 0, i32 8
  %60 = load ptr, ptr %59, align 8, !tbaa !17
  %61 = load ptr, ptr %4, align 8, !tbaa !3
  %62 = getelementptr inbounds nuw %struct.z_stream_s, ptr %61, i32 0, i32 10
  %63 = load ptr, ptr %62, align 8, !tbaa !18
  %64 = load ptr, ptr %6, align 8, !tbaa !20
  %65 = getelementptr inbounds nuw %struct.internal_state, ptr %64, i32 0, i32 11
  %66 = load i32, ptr %65, align 4, !tbaa !33
  %67 = call ptr %60(ptr noundef %63, i32 noundef %66, i32 noundef 2)
  %68 = load ptr, ptr %6, align 8, !tbaa !20
  %69 = getelementptr inbounds nuw %struct.internal_state, ptr %68, i32 0, i32 16
  store ptr %67, ptr %69, align 8, !tbaa !40
  %70 = load ptr, ptr %4, align 8, !tbaa !3
  %71 = getelementptr inbounds nuw %struct.z_stream_s, ptr %70, i32 0, i32 8
  %72 = load ptr, ptr %71, align 8, !tbaa !17
  %73 = load ptr, ptr %4, align 8, !tbaa !3
  %74 = getelementptr inbounds nuw %struct.z_stream_s, ptr %73, i32 0, i32 10
  %75 = load ptr, ptr %74, align 8, !tbaa !18
  %76 = load ptr, ptr %6, align 8, !tbaa !20
  %77 = getelementptr inbounds nuw %struct.internal_state, ptr %76, i32 0, i32 19
  %78 = load i32, ptr %77, align 4, !tbaa !36
  %79 = call ptr %72(ptr noundef %75, i32 noundef %78, i32 noundef 2)
  %80 = load ptr, ptr %6, align 8, !tbaa !20
  %81 = getelementptr inbounds nuw %struct.internal_state, ptr %80, i32 0, i32 17
  store ptr %79, ptr %81, align 8, !tbaa !41
  %82 = load ptr, ptr %4, align 8, !tbaa !3
  %83 = getelementptr inbounds nuw %struct.z_stream_s, ptr %82, i32 0, i32 8
  %84 = load ptr, ptr %83, align 8, !tbaa !17
  %85 = load ptr, ptr %4, align 8, !tbaa !3
  %86 = getelementptr inbounds nuw %struct.z_stream_s, ptr %85, i32 0, i32 10
  %87 = load ptr, ptr %86, align 8, !tbaa !18
  %88 = load ptr, ptr %6, align 8, !tbaa !20
  %89 = getelementptr inbounds nuw %struct.internal_state, ptr %88, i32 0, i32 49
  %90 = load i32, ptr %89, align 8, !tbaa !43
  %91 = call ptr %84(ptr noundef %87, i32 noundef %90, i32 noundef 4)
  store ptr %91, ptr %8, align 8, !tbaa !44
  %92 = load ptr, ptr %8, align 8, !tbaa !44
  %93 = load ptr, ptr %6, align 8, !tbaa !20
  %94 = getelementptr inbounds nuw %struct.internal_state, ptr %93, i32 0, i32 2
  store ptr %92, ptr %94, align 8, !tbaa !45
  %95 = load ptr, ptr %6, align 8, !tbaa !20
  %96 = getelementptr inbounds nuw %struct.internal_state, ptr %95, i32 0, i32 14
  %97 = load ptr, ptr %96, align 8, !tbaa !39
  %98 = icmp eq ptr %97, null
  br i1 %98, label %114, label %99

99:                                               ; preds = %37
  %100 = load ptr, ptr %6, align 8, !tbaa !20
  %101 = getelementptr inbounds nuw %struct.internal_state, ptr %100, i32 0, i32 16
  %102 = load ptr, ptr %101, align 8, !tbaa !40
  %103 = icmp eq ptr %102, null
  br i1 %103, label %114, label %104

104:                                              ; preds = %99
  %105 = load ptr, ptr %6, align 8, !tbaa !20
  %106 = getelementptr inbounds nuw %struct.internal_state, ptr %105, i32 0, i32 17
  %107 = load ptr, ptr %106, align 8, !tbaa !41
  %108 = icmp eq ptr %107, null
  br i1 %108, label %114, label %109

109:                                              ; preds = %104
  %110 = load ptr, ptr %6, align 8, !tbaa !20
  %111 = getelementptr inbounds nuw %struct.internal_state, ptr %110, i32 0, i32 2
  %112 = load ptr, ptr %111, align 8, !tbaa !45
  %113 = icmp eq ptr %112, null
  br i1 %113, label %114, label %117

114:                                              ; preds = %109, %104, %99, %37
  %115 = load ptr, ptr %4, align 8, !tbaa !3
  %116 = call i32 @deflateEnd(ptr noundef %115)
  store i32 -4, ptr %3, align 4
  store i32 1, ptr %9, align 4
  br label %216

117:                                              ; preds = %109
  %118 = load ptr, ptr %6, align 8, !tbaa !20
  %119 = getelementptr inbounds nuw %struct.internal_state, ptr %118, i32 0, i32 14
  %120 = load ptr, ptr %119, align 8, !tbaa !39
  %121 = load ptr, ptr %7, align 8, !tbaa !20
  %122 = getelementptr inbounds nuw %struct.internal_state, ptr %121, i32 0, i32 14
  %123 = load ptr, ptr %122, align 8, !tbaa !39
  %124 = load ptr, ptr %6, align 8, !tbaa !20
  %125 = getelementptr inbounds nuw %struct.internal_state, ptr %124, i32 0, i32 11
  %126 = load i32, ptr %125, align 4, !tbaa !33
  %127 = mul i32 %126, 2
  %128 = zext i32 %127 to i64
  %129 = mul i64 %128, 1
  call void @llvm.memcpy.p0.p0.i64(ptr align 1 %120, ptr align 1 %123, i64 %129, i1 false)
  %130 = load ptr, ptr %6, align 8, !tbaa !20
  %131 = getelementptr inbounds nuw %struct.internal_state, ptr %130, i32 0, i32 16
  %132 = load ptr, ptr %131, align 8, !tbaa !40
  %133 = load ptr, ptr %7, align 8, !tbaa !20
  %134 = getelementptr inbounds nuw %struct.internal_state, ptr %133, i32 0, i32 16
  %135 = load ptr, ptr %134, align 8, !tbaa !40
  %136 = load ptr, ptr %6, align 8, !tbaa !20
  %137 = getelementptr inbounds nuw %struct.internal_state, ptr %136, i32 0, i32 11
  %138 = load i32, ptr %137, align 4, !tbaa !33
  %139 = zext i32 %138 to i64
  %140 = mul i64 %139, 2
  call void @llvm.memcpy.p0.p0.i64(ptr align 1 %132, ptr align 1 %135, i64 %140, i1 false)
  %141 = load ptr, ptr %6, align 8, !tbaa !20
  %142 = getelementptr inbounds nuw %struct.internal_state, ptr %141, i32 0, i32 17
  %143 = load ptr, ptr %142, align 8, !tbaa !41
  %144 = load ptr, ptr %7, align 8, !tbaa !20
  %145 = getelementptr inbounds nuw %struct.internal_state, ptr %144, i32 0, i32 17
  %146 = load ptr, ptr %145, align 8, !tbaa !41
  %147 = load ptr, ptr %6, align 8, !tbaa !20
  %148 = getelementptr inbounds nuw %struct.internal_state, ptr %147, i32 0, i32 19
  %149 = load i32, ptr %148, align 4, !tbaa !36
  %150 = zext i32 %149 to i64
  %151 = mul i64 %150, 2
  call void @llvm.memcpy.p0.p0.i64(ptr align 1 %143, ptr align 1 %146, i64 %151, i1 false)
  %152 = load ptr, ptr %6, align 8, !tbaa !20
  %153 = getelementptr inbounds nuw %struct.internal_state, ptr %152, i32 0, i32 2
  %154 = load ptr, ptr %153, align 8, !tbaa !45
  %155 = load ptr, ptr %7, align 8, !tbaa !20
  %156 = getelementptr inbounds nuw %struct.internal_state, ptr %155, i32 0, i32 2
  %157 = load ptr, ptr %156, align 8, !tbaa !45
  %158 = load ptr, ptr %6, align 8, !tbaa !20
  %159 = getelementptr inbounds nuw %struct.internal_state, ptr %158, i32 0, i32 3
  %160 = load i64, ptr %159, align 8, !tbaa !46
  %161 = trunc i64 %160 to i32
  %162 = zext i32 %161 to i64
  call void @llvm.memcpy.p0.p0.i64(ptr align 1 %154, ptr align 1 %157, i64 %162, i1 false)
  %163 = load ptr, ptr %6, align 8, !tbaa !20
  %164 = getelementptr inbounds nuw %struct.internal_state, ptr %163, i32 0, i32 2
  %165 = load ptr, ptr %164, align 8, !tbaa !45
  %166 = load ptr, ptr %7, align 8, !tbaa !20
  %167 = getelementptr inbounds nuw %struct.internal_state, ptr %166, i32 0, i32 4
  %168 = load ptr, ptr %167, align 8, !tbaa !79
  %169 = load ptr, ptr %7, align 8, !tbaa !20
  %170 = getelementptr inbounds nuw %struct.internal_state, ptr %169, i32 0, i32 2
  %171 = load ptr, ptr %170, align 8, !tbaa !45
  %172 = ptrtoint ptr %168 to i64
  %173 = ptrtoint ptr %171 to i64
  %174 = sub i64 %172, %173
  %175 = getelementptr inbounds i8, ptr %165, i64 %174
  %176 = load ptr, ptr %6, align 8, !tbaa !20
  %177 = getelementptr inbounds nuw %struct.internal_state, ptr %176, i32 0, i32 4
  store ptr %175, ptr %177, align 8, !tbaa !79
  %178 = load ptr, ptr %8, align 8, !tbaa !44
  %179 = load ptr, ptr %6, align 8, !tbaa !20
  %180 = getelementptr inbounds nuw %struct.internal_state, ptr %179, i32 0, i32 49
  %181 = load i32, ptr %180, align 8, !tbaa !43
  %182 = zext i32 %181 to i64
  %183 = udiv i64 %182, 2
  %184 = getelementptr inbounds nuw i16, ptr %178, i64 %183
  %185 = load ptr, ptr %6, align 8, !tbaa !20
  %186 = getelementptr inbounds nuw %struct.internal_state, ptr %185, i32 0, i32 51
  store ptr %184, ptr %186, align 8, !tbaa !48
  %187 = load ptr, ptr %6, align 8, !tbaa !20
  %188 = getelementptr inbounds nuw %struct.internal_state, ptr %187, i32 0, i32 2
  %189 = load ptr, ptr %188, align 8, !tbaa !45
  %190 = load ptr, ptr %6, align 8, !tbaa !20
  %191 = getelementptr inbounds nuw %struct.internal_state, ptr %190, i32 0, i32 49
  %192 = load i32, ptr %191, align 8, !tbaa !43
  %193 = zext i32 %192 to i64
  %194 = mul i64 3, %193
  %195 = getelementptr inbounds nuw i8, ptr %189, i64 %194
  %196 = load ptr, ptr %6, align 8, !tbaa !20
  %197 = getelementptr inbounds nuw %struct.internal_state, ptr %196, i32 0, i32 48
  store ptr %195, ptr %197, align 8, !tbaa !49
  %198 = load ptr, ptr %6, align 8, !tbaa !20
  %199 = getelementptr inbounds nuw %struct.internal_state, ptr %198, i32 0, i32 37
  %200 = getelementptr inbounds [573 x %struct.ct_data_s], ptr %199, i64 0, i64 0
  %201 = load ptr, ptr %6, align 8, !tbaa !20
  %202 = getelementptr inbounds nuw %struct.internal_state, ptr %201, i32 0, i32 40
  %203 = getelementptr inbounds nuw %struct.tree_desc_s, ptr %202, i32 0, i32 0
  store ptr %200, ptr %203, align 8, !tbaa !117
  %204 = load ptr, ptr %6, align 8, !tbaa !20
  %205 = getelementptr inbounds nuw %struct.internal_state, ptr %204, i32 0, i32 38
  %206 = getelementptr inbounds [61 x %struct.ct_data_s], ptr %205, i64 0, i64 0
  %207 = load ptr, ptr %6, align 8, !tbaa !20
  %208 = getelementptr inbounds nuw %struct.internal_state, ptr %207, i32 0, i32 41
  %209 = getelementptr inbounds nuw %struct.tree_desc_s, ptr %208, i32 0, i32 0
  store ptr %206, ptr %209, align 8, !tbaa !118
  %210 = load ptr, ptr %6, align 8, !tbaa !20
  %211 = getelementptr inbounds nuw %struct.internal_state, ptr %210, i32 0, i32 39
  %212 = getelementptr inbounds [39 x %struct.ct_data_s], ptr %211, i64 0, i64 0
  %213 = load ptr, ptr %6, align 8, !tbaa !20
  %214 = getelementptr inbounds nuw %struct.internal_state, ptr %213, i32 0, i32 42
  %215 = getelementptr inbounds nuw %struct.tree_desc_s, ptr %214, i32 0, i32 0
  store ptr %212, ptr %215, align 8, !tbaa !119
  store i32 0, ptr %3, align 4
  store i32 1, ptr %9, align 4
  br label %216

216:                                              ; preds = %117, %114, %36, %20
  call void @llvm.lifetime.end.p0(i64 8, ptr %8) #5
  call void @llvm.lifetime.end.p0(i64 8, ptr %7) #5
  call void @llvm.lifetime.end.p0(i64 8, ptr %6) #5
  %217 = load i32, ptr %3, align 4
  ret i32 %217
}