; Function Attrs: nounwind uwtable
define range(i32 -4, 1) i32 @deflateCopy(ptr noundef %0, ptr noundef readonly %1) local_unnamed_addr #0 {
  %3 = icmp eq ptr %1, null
  %4 = icmp eq ptr %0, null
  %or.cond = or i1 %4, %3
  br i1 %or.cond, label %100, label %5

5:                                                ; preds = %2
  %6 = getelementptr inbounds nuw i8, ptr %1, i64 56
  %7 = load ptr, ptr %6, align 8, !tbaa !16
  %8 = icmp eq ptr %7, null
  br i1 %8, label %100, label %9

9:                                                ; preds = %5
  tail call void @llvm.memcpy.p0.p0.i64(ptr noundef nonnull align 1 dereferenceable(112) %0, ptr noundef nonnull align 1 dereferenceable(112) %1, i64 112, i1 false)
  %10 = getelementptr inbounds nuw i8, ptr %0, i64 64
  %11 = load ptr, ptr %10, align 8, !tbaa !13
  %12 = getelementptr inbounds nuw i8, ptr %0, i64 80
  %13 = load ptr, ptr %12, align 8, !tbaa !14
  %14 = tail call ptr %11(ptr noundef %13, i32 noundef 1, i32 noundef 5936) #10
  %15 = icmp eq ptr %14, null
  br i1 %15, label %100, label %16

16:                                               ; preds = %9
  %17 = getelementptr inbounds nuw i8, ptr %0, i64 56
  store ptr %14, ptr %17, align 8, !tbaa !16
  tail call void @llvm.memcpy.p0.p0.i64(ptr noundef nonnull align 1 dereferenceable(5936) %14, ptr noundef nonnull align 1 dereferenceable(5936) %7, i64 5936, i1 false)
  store ptr %0, ptr %14, align 8, !tbaa !17
  %18 = load ptr, ptr %10, align 8, !tbaa !13
  %19 = load ptr, ptr %12, align 8, !tbaa !14
  %20 = getelementptr inbounds nuw i8, ptr %14, i64 68
  %21 = load i32, ptr %20, align 4, !tbaa !29
  %22 = tail call ptr %18(ptr noundef %19, i32 noundef %21, i32 noundef 2) #10
  %23 = getelementptr inbounds nuw i8, ptr %14, i64 80
  store ptr %22, ptr %23, align 8, !tbaa !35
  %24 = load ptr, ptr %10, align 8, !tbaa !13
  %25 = load ptr, ptr %12, align 8, !tbaa !14
  %26 = load i32, ptr %20, align 4, !tbaa !29
  %27 = tail call ptr %24(ptr noundef %25, i32 noundef %26, i32 noundef 2) #10
  %28 = getelementptr inbounds nuw i8, ptr %14, i64 96
  store ptr %27, ptr %28, align 8, !tbaa !36
  %29 = load ptr, ptr %10, align 8, !tbaa !13
  %30 = load ptr, ptr %12, align 8, !tbaa !14
  %31 = getelementptr inbounds nuw i8, ptr %14, i64 116
  %32 = load i32, ptr %31, align 4, !tbaa !32
  %33 = tail call ptr %29(ptr noundef %30, i32 noundef %32, i32 noundef 2) #10
  %34 = getelementptr inbounds nuw i8, ptr %14, i64 104
  store ptr %33, ptr %34, align 8, !tbaa !37
  %35 = load ptr, ptr %10, align 8, !tbaa !13
  %36 = load ptr, ptr %12, align 8, !tbaa !14
  %37 = getelementptr inbounds nuw i8, ptr %14, i64 5880
  %38 = load i32, ptr %37, align 8, !tbaa !39
  %39 = tail call ptr %35(ptr noundef %36, i32 noundef %38, i32 noundef 4) #10
  %40 = getelementptr inbounds nuw i8, ptr %14, i64 16
  store ptr %39, ptr %40, align 8, !tbaa !40
  %41 = load ptr, ptr %23, align 8, !tbaa !35
  %42 = icmp eq ptr %41, null
  br i1 %42, label %50, label %43

43:                                               ; preds = %16
  %44 = load ptr, ptr %28, align 8, !tbaa !36
  %45 = icmp eq ptr %44, null
  br i1 %45, label %50, label %46

46:                                               ; preds = %43
  %47 = load ptr, ptr %34, align 8, !tbaa !37
  %48 = icmp eq ptr %47, null
  %49 = icmp eq ptr %39, null
  %or.cond72 = select i1 %48, i1 true, i1 %49
  br i1 %or.cond72, label %50, label %52

50:                                               ; preds = %46, %43, %16
  %51 = tail call i32 @deflateEnd(ptr noundef nonnull %0)
  br label %100

52:                                               ; preds = %46
  %53 = getelementptr inbounds nuw i8, ptr %7, i64 80
  %54 = load ptr, ptr %53, align 8, !tbaa !35
  %55 = load i32, ptr %20, align 4, !tbaa !29
  %56 = shl i32 %55, 1
  %57 = zext i32 %56 to i64
  tail call void @llvm.memcpy.p0.p0.i64(ptr nonnull align 1 %41, ptr align 1 %54, i64 %57, i1 false)
  %58 = load ptr, ptr %28, align 8, !tbaa !36
  %59 = getelementptr inbounds nuw i8, ptr %7, i64 96
  %60 = load ptr, ptr %59, align 8, !tbaa !36
  %61 = load i32, ptr %20, align 4, !tbaa !29
  %62 = zext i32 %61 to i64
  %63 = shl nuw nsw i64 %62, 1
  tail call void @llvm.memcpy.p0.p0.i64(ptr align 1 %58, ptr align 1 %60, i64 %63, i1 false)
  %64 = load ptr, ptr %34, align 8, !tbaa !37
  %65 = getelementptr inbounds nuw i8, ptr %7, i64 104
  %66 = load ptr, ptr %65, align 8, !tbaa !37
  %67 = load i32, ptr %31, align 4, !tbaa !32
  %68 = zext i32 %67 to i64
  %69 = shl nuw nsw i64 %68, 1
  tail call void @llvm.memcpy.p0.p0.i64(ptr align 1 %64, ptr align 1 %66, i64 %69, i1 false)
  %70 = load ptr, ptr %40, align 8, !tbaa !40
  %71 = getelementptr inbounds nuw i8, ptr %7, i64 16
  %72 = load ptr, ptr %71, align 8, !tbaa !40
  %73 = getelementptr inbounds nuw i8, ptr %14, i64 24
  %74 = load i64, ptr %73, align 8, !tbaa !41
  %75 = and i64 %74, 4294967295
  tail call void @llvm.memcpy.p0.p0.i64(ptr align 1 %70, ptr align 1 %72, i64 %75, i1 false)
  %76 = load ptr, ptr %40, align 8, !tbaa !40
  %77 = getelementptr inbounds nuw i8, ptr %7, i64 32
  %78 = load ptr, ptr %77, align 8, !tbaa !52
  %79 = load ptr, ptr %71, align 8, !tbaa !40
  %80 = ptrtoint ptr %78 to i64
  %81 = ptrtoint ptr %79 to i64
  %82 = sub i64 %80, %81
  %83 = getelementptr inbounds i8, ptr %76, i64 %82
  %84 = getelementptr inbounds nuw i8, ptr %14, i64 32
  store ptr %83, ptr %84, align 8, !tbaa !52
  %85 = load i32, ptr %37, align 8, !tbaa !39
  %86 = lshr i32 %85, 1
  %87 = zext nneg i32 %86 to i64
  %88 = getelementptr inbounds nuw i16, ptr %39, i64 %87
  %89 = getelementptr inbounds nuw i8, ptr %14, i64 5888
  store ptr %88, ptr %89, align 8, !tbaa !44
  %90 = zext i32 %85 to i64
  %91 = mul nuw nsw i64 %90, 3
  %92 = getelementptr inbounds nuw i8, ptr %76, i64 %91
  %93 = getelementptr inbounds nuw i8, ptr %14, i64 5872
  store ptr %92, ptr %93, align 8, !tbaa !45
  %94 = getelementptr inbounds nuw i8, ptr %14, i64 196
  %95 = getelementptr inbounds nuw i8, ptr %14, i64 2888
  store ptr %94, ptr %95, align 8, !tbaa !109
  %96 = getelementptr inbounds nuw i8, ptr %14, i64 2488
  %97 = getelementptr inbounds nuw i8, ptr %14, i64 2912
  store ptr %96, ptr %97, align 8, !tbaa !110
  %98 = getelementptr inbounds nuw i8, ptr %14, i64 2732
  %99 = getelementptr inbounds nuw i8, ptr %14, i64 2936
  store ptr %98, ptr %99, align 8, !tbaa !111
  br label %100

100:                                              ; preds = %9, %2, %5, %52, %50
  %.0 = phi i32 [ -4, %50 ], [ 0, %52 ], [ -2, %5 ], [ -2, %2 ], [ -4, %9 ]
  ret i32 %.0
}